; Function Attrs: mustprogress uwtable
define void @_ZN9grpc_core19GetAbsoluteFilePathEPKcS1_Pc(ptr noundef %0, ptr noundef %1, ptr noundef writeonly captures(none) %2) local_unnamed_addr #3 personality ptr @__gxx_personality_v0 {
  %4 = alloca ptr, align 8
  %5 = alloca %"class.absl::lts_20240722::log_internal::LogMessage", align 8
  store ptr %1, ptr %4, align 8, !tbaa !3
  %6 = icmp ne ptr %0, null
  %7 = icmp ne ptr %1, null
  %or.cond = and i1 %6, %7
  br i1 %or.cond, label %8, label %16

8:                                                ; preds = %3
  %9 = tail call i32 (ptr, i64, ptr, ...) @snprintf(ptr noundef nonnull dereferenceable(1) %2, i64 noundef 4096, ptr noundef nonnull @.str, ptr noundef nonnull %0, ptr noundef nonnull %1) #20
  %10 = icmp eq i32 %9, 0
  br i1 %10, label %11, label %16

11:                                               ; preds = %8
  call void @llvm.lifetime.start.p0(i64 16, ptr nonnull %5) #20
  call void @_ZN4absl12lts_2024072212log_internal10LogMessageC1EPKciNS2_8ErrorTagE(ptr noundef nonnull align 8 dereferenceable(16) %5, ptr noundef nonnull @.str.1, i32 noundef 81) #21
  invoke void @_ZN4absl12lts_2024072212log_internal10LogMessage19CopyToEncodedBufferILNS2_10StringTypeE0EEEvSt17basic_string_viewIcSt11char_traitsIcEE(ptr noundef nonnull align 8 dereferenceable(16) %5, i64 38, ptr nonnull @.str.2)
          to label %_ZN4absl12lts_2024072212log_internal10LogMessagelsILi39EEERS2_RAT__Kc.exit unwind label %14

_ZN4absl12lts_2024072212log_internal10LogMessagelsILi39EEERS2_RAT__Kc.exit: ; preds = %11
  %12 = invoke noundef nonnull align 8 dereferenceable(16) ptr @_ZN4absl12lts_2024072212log_internal10LogMessagelsIPKcTnNSt9enable_ifIXntsr4absl16HasAbslStringifyIT_EE5valueEiE4typeELi0EEERS2_RKS7_(ptr noundef nonnull align 8 dereferenceable(16) %5, ptr noundef nonnull align 8 dereferenceable(8) %4)
          to label %13 unwind label %14

13:                                               ; preds = %_ZN4absl12lts_2024072212log_internal10LogMessagelsILi39EEERS2_RAT__Kc.exit
  call void @_ZN4absl12lts_2024072212log_internal10LogMessageD1Ev(ptr noundef nonnull align 8 dereferenceable(16) %5) #22
  call void @llvm.lifetime.end.p0(i64 16, ptr nonnull %5) #20
  br label %16

14:                                               ; preds = %11, %_ZN4absl12lts_2024072212log_internal10LogMessagelsILi39EEERS2_RAT__Kc.exit
  %15 = landingpad { ptr, i32 }
          cleanup
  call void @_ZN4absl12lts_2024072212log_internal10LogMessageD1Ev(ptr noundef nonnull align 8 dereferenceable(16) %5) #22
  call void @llvm.lifetime.end.p0(i64 16, ptr nonnull %5) #20
  resume { ptr, i32 } %15

16:                                               ; preds = %8, %13, %3
  ret void
}